; Function Attrs: nounwind uwtable
define dso_local ptr @transformTopLevelStmt(ptr noundef initializes((16, 24)) %0, ptr noundef readonly captures(none) %1) local_unnamed_addr #0 {
  %3 = getelementptr inbounds nuw i8, ptr %1, i64 20
  %4 = load i32, ptr %3, align 4
  %5 = getelementptr inbounds nuw i8, ptr %0, i64 20
  store i32 %4, ptr %5, align 4
  %6 = getelementptr inbounds nuw i8, ptr %1, i64 16
  %7 = load i32, ptr %6, align 8
  %8 = getelementptr inbounds nuw i8, ptr %0, i64 16
  store i32 %7, ptr %8, align 8
  %9 = getelementptr inbounds nuw i8, ptr %1, i64 8
  %10 = load ptr, ptr %9, align 8
  %11 = load i32, ptr %10, align 4
  %12 = icmp eq i32 %11, 141
  br i1 %12, label %.preheader.i.preheader, label %transformOptionalSelectInto.exit

.preheader.i.preheader:                           ; preds = %2
  %13 = getelementptr inbounds nuw i8, ptr %10, i64 136
  %14 = load i32, ptr %13, align 8
  %.not17.i7 = icmp eq i32 %14, 0
  br i1 %.not17.i7, label %.critedge.i, label %.preheader.i

.preheader.i:                                     ; preds = %.preheader.i.preheader, %.preheader.i
  %.01619.i8 = phi ptr [ %16, %.preheader.i ], [ %10, %.preheader.i.preheader ]
  %15 = getelementptr inbounds nuw i8, ptr %.01619.i8, i64 144
  %16 = load ptr, ptr %15, align 8, !nonnull !4, !noundef !4
  %17 = getelementptr inbounds nuw i8, ptr %16, i64 136
  %18 = load i32, ptr %17, align 8
  %.not17.i = icmp eq i32 %18, 0
  br i1 %.not17.i, label %.critedge.i, label %.preheader.i

.critedge.i:                                      ; preds = %.preheader.i, %.preheader.i.preheader
  %.01619.i.lcssa = phi ptr [ %10, %.preheader.i.preheader ], [ %16, %.preheader.i ]
  %19 = getelementptr inbounds nuw i8, ptr %.01619.i.lcssa, i64 16
  %20 = load ptr, ptr %19, align 8
  %.not18.i = icmp eq ptr %20, null
  br i1 %.not18.i, label %transformOptionalSelectInto.exit, label %21

21:                                               ; preds = %.critedge.i
  %22 = tail call noundef ptr @palloc0(i64 noundef 32) #11
  store i32 241, ptr %22, align 4
  %23 = getelementptr inbounds nuw i8, ptr %22, i64 8
  store ptr %10, ptr %23, align 8
  %24 = load ptr, ptr %19, align 8
  %25 = getelementptr inbounds nuw i8, ptr %22, i64 16
  store ptr %24, ptr %25, align 8
  %26 = getelementptr inbounds nuw i8, ptr %22, i64 24
  store i32 41, ptr %26, align 8
  %27 = getelementptr inbounds nuw i8, ptr %22, i64 28
  store i8 1, ptr %27, align 4
  store ptr null, ptr %19, align 8
  br label %transformOptionalSelectInto.exit

transformOptionalSelectInto.exit:                 ; preds = %2, %.critedge.i, %21
  %.0.i = phi ptr [ %10, %2 ], [ %22, %21 ], [ %10, %.critedge.i ]
  %28 = tail call ptr @transformStmt(ptr noundef %0, ptr noundef nonnull %.0.i)
  ret ptr %28
}